target datalayout = "e-m:e-p270:32:32-p271:32:32-p272:64:64-i64:64-i128:128-f80:128-n8:16:32:64-S128"
target triple = "x86_64-pc-linux-gnu"

%struct.event = type { %struct.event_callback, %union.anon.0, i32, ptr, %union.anon.2, i16, i16, %struct.timeval }
%struct.event_callback = type { %struct.anon, i16, i8, i8, %union.anon, ptr }
%struct.anon = type { ptr, ptr }
%union.anon = type { ptr }
%union.anon.0 = type { %struct.anon.1 }
%struct.anon.1 = type { ptr, ptr }
%union.anon.2 = type { %struct.anon.3 }
%struct.anon.3 = type { %struct.anon.4, %struct.timeval }
%struct.anon.4 = type { ptr, ptr }
%struct.timeval = type { i64, i64 }
%struct.pmix_list_t = type { %struct.pmix_object_t, %struct.pmix_list_item_t, i64 }
%struct.pmix_object_t = type { %union.pthread_mutex_t, ptr, i32, %struct.pmix_tma }
%union.pthread_mutex_t = type { %struct.__pthread_mutex_s }
%struct.__pthread_mutex_s = type { i32, i32, i32, i32, i32, i16, i16, %struct.__pthread_internal_list }
%struct.__pthread_internal_list = type { ptr, ptr }
%struct.pmix_tma = type { ptr, ptr, ptr, ptr, ptr, ptr, ptr, ptr }
%struct.pmix_list_item_t = type { %struct.pmix_object_t, ptr, ptr, i32 }
%struct.pmix_mca_base_framework_t = type { ptr, ptr, ptr, ptr, ptr, ptr, i32, i32, ptr, ptr, i32, i32, %struct.pmix_list_t, %struct.pmix_list_t }
%struct.prte_errmgr_base_module_2_3_0_t = type { ptr, ptr, ptr }
%struct.prte_odls_base_module_1_3_0_t = type { ptr, ptr, ptr, ptr, ptr }

@epipe_handler = internal global %struct.event zeroinitializer, align 8
@term_handler = internal global %struct.event zeroinitializer, align 8
@int_handler = internal global %struct.event zeroinitializer, align 8
@prte_ess_base_signals = external global %struct.pmix_list_t, align 8
@forward_signals_events = internal global ptr null, align 8
@signals_set = internal global i8 0, align 1
@prte_state_base_framework = external global %struct.pmix_mca_base_framework_t, align 8
@prte_errmgr_base_framework = external global %struct.pmix_mca_base_framework_t, align 8
@prte_plm_base_framework = external global %struct.pmix_mca_base_framework_t, align 8
@prte_prtereachable_base_framework = external global %struct.pmix_mca_base_framework_t, align 8
@prte_grpcomm_base_framework = external global %struct.pmix_mca_base_framework_t, align 8
@prte_odls_base_framework = external global %struct.pmix_mca_base_framework_t, align 8
@prte_iof_base_framework = external global %struct.pmix_mca_base_framework_t, align 8
@prte_filem_base_framework = external global %struct.pmix_mca_base_framework_t, align 8
@prte_errmgr = external global %struct.prte_errmgr_base_module_2_3_0_t, align 8
@prte_odls = external global %struct.prte_odls_base_module_1_3_0_t, align 8

; Function Attrs: nounwind uwtable
define i32 @prte_ess_base_prted_finalize() #0 {
  %1 = alloca ptr, align 8
  %2 = alloca i32, align 4
  call void @llvm.lifetime.start.p0(i64 8, ptr %1) #12
  call void @llvm.lifetime.start.p0(i64 4, ptr %2) #12
  %3 = load i8, ptr @signals_set, align 1, !tbaa !11, !range !78, !noundef !79
  %4 = trunc i8 %3 to i1
  br i1 %4, label %5, label %27

5:                                                ; preds = %0
  %6 = call i32 @event_del(ptr noundef @epipe_handler)
  %7 = call i32 @event_del(ptr noundef @term_handler)
  %8 = call i32 @event_del(ptr noundef @int_handler)
  store i32 0, ptr %2, align 4, !tbaa !3
  %9 = load ptr, ptr getelementptr inbounds nuw (%struct.pmix_list_item_t, ptr getelementptr inbounds nuw (%struct.pmix_list_t, ptr @prte_ess_base_signals, i32 0, i32 1), i32 0, i32 1), align 8, !tbaa !15
  store ptr %9, ptr %1, align 8, !tbaa !10
  br label %10

10:                                               ; preds = %21, %5
  %11 = load ptr, ptr %1, align 8, !tbaa !10
  %12 = icmp ne ptr %11, getelementptr inbounds nuw (%struct.pmix_list_t, ptr @prte_ess_base_signals, i32 0, i32 1)
  br i1 %12, label %13, label %25

13:                                               ; preds = %10
  %14 = load ptr, ptr @forward_signals_events, align 8, !tbaa !13
  %15 = load i32, ptr %2, align 4, !tbaa !3
  %16 = zext i32 %15 to i64
  %17 = getelementptr inbounds nuw %struct.event, ptr %14, i64 %16
  %18 = call i32 @event_del(ptr noundef %17)
  %19 = load i32, ptr %2, align 4, !tbaa !3
  %20 = add i32 %19, 1
  store i32 %20, ptr %2, align 4, !tbaa !3
  br label %21

21:                                               ; preds = %13
  %22 = load ptr, ptr %1, align 8, !tbaa !10
  %23 = getelementptr inbounds nuw %struct.pmix_list_item_t, ptr %22, i32 0, i32 1
  %24 = load ptr, ptr %23, align 8, !tbaa !25
  store ptr %24, ptr %1, align 8, !tbaa !10
  br label %10, !llvm.loop !133

25:                                               ; preds = %10
  %26 = load ptr, ptr @forward_signals_events, align 8, !tbaa !13
  call void @free(ptr noundef %26) #12
  store ptr null, ptr @forward_signals_events, align 8, !tbaa !13
  store i8 0, ptr @signals_set, align 1, !tbaa !11
  br label %27

27:                                               ; preds = %25, %0
  %28 = load ptr, ptr getelementptr inbounds nuw (%struct.prte_errmgr_base_module_2_3_0_t, ptr @prte_errmgr, i32 0, i32 1), align 8, !tbaa !134
  %29 = icmp ne ptr null, %28
  br i1 %29, label %30, label %33

30:                                               ; preds = %27
  %31 = load ptr, ptr getelementptr inbounds nuw (%struct.prte_errmgr_base_module_2_3_0_t, ptr @prte_errmgr, i32 0, i32 1), align 8, !tbaa !134
  %32 = call i32 %31()
  br label %33

33:                                               ; preds = %30, %27
  %34 = call i32 @pmix_mca_base_framework_close(ptr noundef @prte_filem_base_framework)
  %35 = call i32 @pmix_mca_base_framework_close(ptr noundef @prte_grpcomm_base_framework)
  %36 = call i32 @pmix_mca_base_framework_close(ptr noundef @prte_iof_base_framework)
  %37 = call i32 @pmix_mca_base_framework_close(ptr noundef @prte_plm_base_framework)
  %38 = load ptr, ptr getelementptr inbounds nuw (%struct.prte_odls_base_module_1_3_0_t, ptr @prte_odls, i32 0, i32 2), align 8, !tbaa !136
  %39 = call i32 %38(ptr noundef null)
  %40 = call i32 @pmix_mca_base_framework_close(ptr noundef @prte_odls_base_framework)
  %41 = call i32 @pmix_mca_base_framework_close(ptr noundef @prte_errmgr_base_framework)
  call void @prte_rml_close()
  %42 = call i32 @pmix_mca_base_framework_close(ptr noundef @prte_prtereachable_base_framework)
  %43 = call i32 @pmix_mca_base_framework_close(ptr noundef @prte_state_base_framework)
  call void @pmix_server_finalize()
  call void @llvm.lifetime.end.p0(i64 4, ptr %2) #12
  call void @llvm.lifetime.end.p0(i64 8, ptr %1) #12
  ret i32 0
}