; Function Attrs: nounwind uwtable
define noundef i32 @prte_ess_base_prted_finalize() local_unnamed_addr #0 {
  %.b5 = load i1, ptr @signals_set, align 1
  br i1 %.b5, label %1, label %12

1:                                                ; preds = %0
  %2 = tail call i32 @event_del(ptr noundef nonnull @epipe_handler) #18
  %3 = tail call i32 @event_del(ptr noundef nonnull @term_handler) #18
  %4 = tail call i32 @event_del(ptr noundef nonnull @int_handler) #18
  %.037 = load ptr, ptr getelementptr inbounds nuw (i8, ptr @prte_ess_base_signals, i64 240), align 8, !tbaa !21
  %.not8 = icmp eq ptr %.037, getelementptr inbounds nuw (i8, ptr @prte_ess_base_signals, i64 120)
  br i1 %.not8, label %._crit_edge, label %.lr.ph

.lr.ph:                                           ; preds = %1, %.lr.ph
  %.0310 = phi ptr [ %.03, %.lr.ph ], [ %.037, %1 ]
  %.09 = phi i32 [ %9, %.lr.ph ], [ 0, %1 ]
  %5 = load ptr, ptr @forward_signals_events, align 8, !tbaa !19
  %6 = zext i32 %.09 to i64
  %7 = getelementptr inbounds nuw %struct.event, ptr %5, i64 %6
  %8 = tail call i32 @event_del(ptr noundef %7) #18
  %9 = add i32 %.09, 1
  %10 = getelementptr inbounds nuw i8, ptr %.0310, i64 120
  %.03 = load ptr, ptr %10, align 8, !tbaa !21
  %.not = icmp eq ptr %.03, getelementptr inbounds nuw (i8, ptr @prte_ess_base_signals, i64 120)
  br i1 %.not, label %._crit_edge, label %.lr.ph, !llvm.loop !111

._crit_edge:                                      ; preds = %.lr.ph, %1
  %11 = load ptr, ptr @forward_signals_events, align 8, !tbaa !19
  tail call void @free(ptr noundef %11) #18
  store ptr null, ptr @forward_signals_events, align 8, !tbaa !19
  store i1 false, ptr @signals_set, align 1
  br label %12

12:                                               ; preds = %._crit_edge, %0
  %13 = load ptr, ptr getelementptr inbounds nuw (i8, ptr @prte_errmgr, i64 8), align 8, !tbaa !112
  %.not6 = icmp eq ptr %13, null
  br i1 %.not6, label %16, label %14

14:                                               ; preds = %12
  %15 = tail call i32 %13() #18
  br label %16

16:                                               ; preds = %14, %12
  %17 = tail call i32 @pmix_mca_base_framework_close(ptr noundef nonnull @prte_filem_base_framework) #18
  %18 = tail call i32 @pmix_mca_base_framework_close(ptr noundef nonnull @prte_grpcomm_base_framework) #18
  %19 = tail call i32 @pmix_mca_base_framework_close(ptr noundef nonnull @prte_iof_base_framework) #18
  %20 = tail call i32 @pmix_mca_base_framework_close(ptr noundef nonnull @prte_plm_base_framework) #18
  %21 = load ptr, ptr getelementptr inbounds nuw (i8, ptr @prte_odls, i64 16), align 8, !tbaa !114
  %22 = tail call i32 %21(ptr noundef null) #18
  %23 = tail call i32 @pmix_mca_base_framework_close(ptr noundef nonnull @prte_odls_base_framework) #18
  %24 = tail call i32 @pmix_mca_base_framework_close(ptr noundef nonnull @prte_errmgr_base_framework) #18
  tail call void @prte_rml_close() #18
  %25 = tail call i32 @pmix_mca_base_framework_close(ptr noundef nonnull @prte_prtereachable_base_framework) #18
  %26 = tail call i32 @pmix_mca_base_framework_close(ptr noundef nonnull @prte_state_base_framework) #18
  tail call void @pmix_server_finalize() #18
  ret i32 0
}